target datalayout = "e-m:e-p270:32:32-p271:32:32-p272:64:64-i64:64-i128:128-f80:128-n8:16:32:64-S128"
target triple = "x86_64-unknown-linux-gnu"

%"class.icu_75::RuleBasedBreakIterator" = type <{ %"class.icu_75::BreakIterator.base", i8, %struct.UText, ptr, i32, i32, i32, [4 x i8], ptr, ptr, ptr, ptr, i32, [4 x i8], ptr, %"class.icu_75::UCharCharacterIterator", i8, [7 x i8], ptr, i8, [7 x i8] }>
%"class.icu_75::BreakIterator.base" = type <{ %"class.icu_75::UObject", [157 x i8], [157 x i8], [157 x i8] }>
%"class.icu_75::UObject" = type { ptr }
%struct.UText = type { i32, i32, i32, i32, i64, i32, i32, i64, i32, i32, ptr, ptr, ptr, ptr, ptr, ptr, ptr, ptr, i64, i32, i32, i64, i32, i32 }
%"class.icu_75::UCharCharacterIterator" = type { %"class.icu_75::CharacterIterator", ptr }
%"class.icu_75::CharacterIterator" = type { %"class.icu_75::ForwardCharacterIterator", i32, i32, i32, i32 }
%"class.icu_75::ForwardCharacterIterator" = type { %"class.icu_75::UObject" }
%"class.icu_75::RBBIDataWrapper" = type <{ ptr, ptr, ptr, ptr, ptr, i32, [4 x i8], ptr, %"struct.std::atomic", [4 x i8], ptr, %"class.icu_75::UnicodeString", i8, [7 x i8] }>
%"struct.std::atomic" = type { %"struct.std::__atomic_base" }
%"struct.std::__atomic_base" = type { i32 }
%"class.icu_75::UnicodeString" = type { %"class.icu_75::Replaceable", %"union.icu_75::UnicodeString::StackBufferOrFields" }
%"class.icu_75::Replaceable" = type { %"class.icu_75::UObject" }
%"union.icu_75::UnicodeString::StackBufferOrFields" = type { %struct.anon.0, [32 x i8] }
%struct.anon.0 = type { i16, i32, i32, ptr }
%"struct.icu_75::RBBIStateTable" = type { i32, i32, i32, i32, i32, [1 x i8] }

; Function Attrs: mustprogress nounwind uwtable
define internal noundef signext i8 @_ZL9U_FAILURE10UErrorCode(i32 noundef %code) #0 {
entry:
  %code.addr = alloca i32, align 4
  store i32 %code, ptr %code.addr, align 4
  %0 = load i32, ptr %code.addr, align 4
  %cmp = icmp sgt i32 %0, 0
  %conv = zext i1 %cmp to i8
  ret i8 %conv
}

; Function Attrs: mustprogress uwtable
define void @_ZN6icu_7522RuleBasedBreakIteratorC2EP11UDataMemoryR10UErrorCode(ptr noundef nonnull align 8 dereferenceable(745) %this, ptr noundef %udm, ptr noundef nonnull align 4 dereferenceable(4) %status) unnamed_addr #1 align 2 personality ptr @__gxx_personality_v0 {
entry:
  %this.addr = alloca ptr, align 8
  %udm.addr = alloca ptr, align 8
  %status.addr = alloca ptr, align 8
  %cleanup.cond = alloca i1, align 1
  %exn.slot = alloca ptr, align 8
  %ehselector.slot = alloca i32, align 4
  store ptr %this, ptr %this.addr, align 8
  store ptr %udm, ptr %udm.addr, align 8
  store ptr %status, ptr %status.addr, align 8
  %this1 = load ptr, ptr %this.addr, align 8
  %0 = load ptr, ptr %status.addr, align 8
  call void @_ZN6icu_7522RuleBasedBreakIteratorC2EP10UErrorCode(ptr noundef nonnull align 8 dereferenceable(745) %this1, ptr noundef %0)
  %call = call noundef ptr @_ZN6icu_757UMemorynwEm(i64 noundef 144) #6
  %new.isnull = icmp eq ptr %call, null
  store i1 false, ptr %cleanup.cond, align 1
  br i1 %new.isnull, label %new.cont, label %new.notnull

new.notnull:                                      ; preds = %entry
  store i1 true, ptr %cleanup.cond, align 1
  %1 = load ptr, ptr %udm.addr, align 8
  %2 = load ptr, ptr %status.addr, align 8
  invoke void @_ZN6icu_7515RBBIDataWrapperC1EP11UDataMemoryR10UErrorCode(ptr noundef nonnull align 8 dereferenceable(137) %call, ptr noundef %1, ptr noundef nonnull align 4 dereferenceable(4) %2)
          to label %invoke.cont unwind label %lpad

invoke.cont:                                      ; preds = %new.notnull
  br label %new.cont

new.cont:                                         ; preds = %invoke.cont, %entry
  %3 = phi ptr [ %call, %invoke.cont ], [ null, %entry ]
  %fData = getelementptr inbounds %"class.icu_75::RuleBasedBreakIterator", ptr %this1, i32 0, i32 3
  store ptr %3, ptr %fData, align 8
  %4 = load ptr, ptr %status.addr, align 8
  %5 = load i32, ptr %4, align 4
  %call4 = invoke noundef signext i8 @_ZL9U_FAILURE10UErrorCode(i32 noundef %5)
          to label %invoke.cont3 unwind label %lpad2

invoke.cont3:                                     ; preds = %new.cont
  %tobool = icmp ne i8 %call4, 0
  br i1 %tobool, label %if.then, label %if.end

if.then:                                          ; preds = %invoke.cont3
  br label %if.end20

lpad:                                             ; preds = %new.notnull
  %6 = landingpad { ptr, i32 }
          cleanup
  %7 = extractvalue { ptr, i32 } %6, 0
  store ptr %7, ptr %exn.slot, align 8
  %8 = extractvalue { ptr, i32 } %6, 1
  store i32 %8, ptr %ehselector.slot, align 4
  %cleanup.is_active = load i1, ptr %cleanup.cond, align 1
  br i1 %cleanup.is_active, label %cleanup.action, label %cleanup.done

cleanup.action:                                   ; preds = %lpad
  call void @_ZN6icu_757UMemorydlEPv(ptr noundef %call) #6
  br label %cleanup.done

cleanup.done:                                     ; preds = %cleanup.action, %lpad
  br label %ehcleanup

lpad2:                                            ; preds = %if.then10, %new.cont
  %9 = landingpad { ptr, i32 }
          cleanup
  %10 = extractvalue { ptr, i32 } %9, 0
  store ptr %10, ptr %exn.slot, align 8
  %11 = extractvalue { ptr, i32 } %9, 1
  store i32 %11, ptr %ehselector.slot, align 4
  br label %ehcleanup

if.end:                                           ; preds = %invoke.cont3
  %fData5 = getelementptr inbounds %"class.icu_75::RuleBasedBreakIterator", ptr %this1, i32 0, i32 3
  %12 = load ptr, ptr %fData5, align 8
  %cmp = icmp eq ptr %12, null
  br i1 %cmp, label %if.then6, label %if.end7

if.then6:                                         ; preds = %if.end
  %13 = load ptr, ptr %status.addr, align 8
  store i32 7, ptr %13, align 4
  br label %if.end20

if.end7:                                          ; preds = %if.end
  %fData8 = getelementptr inbounds %"class.icu_75::RuleBasedBreakIterator", ptr %this1, i32 0, i32 3
  %14 = load ptr, ptr %fData8, align 8
  %fForwardTable = getelementptr inbounds %"class.icu_75::RBBIDataWrapper", ptr %14, i32 0, i32 1
  %15 = load ptr, ptr %fForwardTable, align 8
  %fLookAheadResultsSize = getelementptr inbounds %"struct.icu_75::RBBIStateTable", ptr %15, i32 0, i32 3
  %16 = load i32, ptr %fLookAheadResultsSize, align 4
  %cmp9 = icmp ugt i32 %16, 0
  br i1 %cmp9, label %if.then10, label %if.end20

if.then10:                                        ; preds = %if.end7
  %fData11 = getelementptr inbounds %"class.icu_75::RuleBasedBreakIterator", ptr %this1, i32 0, i32 3
  %17 = load ptr, ptr %fData11, align 8
  %fForwardTable12 = getelementptr inbounds %"class.icu_75::RBBIDataWrapper", ptr %17, i32 0, i32 1
  %18 = load ptr, ptr %fForwardTable12, align 8
  %fLookAheadResultsSize13 = getelementptr inbounds %"struct.icu_75::RBBIStateTable", ptr %18, i32 0, i32 3
  %19 = load i32, ptr %fLookAheadResultsSize13, align 4
  %conv = zext i32 %19 to i64
  %mul = mul i64 %conv, 4
  %call15 = invoke noalias ptr @uprv_malloc_75(i64 noundef %mul) #7
          to label %invoke.cont14 unwind label %lpad2

invoke.cont14:                                    ; preds = %if.then10
  %fLookAheadMatches = getelementptr inbounds %"class.icu_75::RuleBasedBreakIterator", ptr %this1, i32 0, i32 18
  store ptr %call15, ptr %fLookAheadMatches, align 8
  %fLookAheadMatches16 = getelementptr inbounds %"class.icu_75::RuleBasedBreakIterator", ptr %this1, i32 0, i32 18
  %20 = load ptr, ptr %fLookAheadMatches16, align 8
  %cmp17 = icmp eq ptr %20, null
  br i1 %cmp17, label %if.then18, label %if.end19

if.then18:                                        ; preds = %invoke.cont14
  %21 = load ptr, ptr %status.addr, align 8
  store i32 7, ptr %21, align 4
  br label %if.end20

if.end19:                                         ; preds = %invoke.cont14
  br label %if.end20

if.end20:                                         ; preds = %if.end19, %if.then18, %if.end7, %if.then6, %if.then
  ret void

ehcleanup:                                        ; preds = %lpad2, %cleanup.done
  call void @_ZN6icu_7522RuleBasedBreakIteratorD2Ev(ptr noundef nonnull align 8 dereferenceable(745) %this1) #6
  br label %eh.resume

eh.resume:                                        ; preds = %ehcleanup
  %exn = load ptr, ptr %exn.slot, align 8
  %sel = load i32, ptr %ehselector.slot, align 4
  %lpad.val = insertvalue { ptr, i32 } poison, ptr %exn, 0
  %lpad.val21 = insertvalue { ptr, i32 } %lpad.val, i32 %sel, 1
  resume { ptr, i32 } %lpad.val21
}